target datalayout = "e-m:e-p270:32:32-p271:32:32-p272:64:64-i64:64-i128:128-f80:128-n8:16:32:64-S128"
target triple = "x86_64-pc-linux-gnu"

%"struct.(anonymous namespace)::DffLegalizePass" = type { %"struct.Yosys::Pass", [16 x [32 x i32]], [16 x i32], i32, i32, i32, i32, i32, i32, i32, i32, i32, i32, i32, i32, i32, i32, i32, i32, %"class.Yosys::hashlib::dict", %"class.Yosys::hashlib::dict", %"struct.Yosys::SigMap", %"struct.Yosys::FfInitVals" }
%"struct.Yosys::Pass" = type { ptr, %"class.std::__cxx11::basic_string", %"class.std::__cxx11::basic_string", i32, i64, i8, ptr }
%"class.std::__cxx11::basic_string" = type { %"struct.std::__cxx11::basic_string<char>::_Alloc_hider", i64, %union.anon }
%"struct.std::__cxx11::basic_string<char>::_Alloc_hider" = type { ptr }
%union.anon = type { i64, [8 x i8] }
%"class.Yosys::hashlib::dict" = type <{ %"class.std::vector", %"class.std::vector.3", %"struct.Yosys::hashlib::hash_ops", [7 x i8] }>
%"class.std::vector" = type { %"struct.std::_Vector_base" }
%"struct.std::_Vector_base" = type { %"struct.std::_Vector_base<int, std::allocator<int>>::_Vector_impl" }
%"struct.std::_Vector_base<int, std::allocator<int>>::_Vector_impl" = type { %"struct.std::_Vector_base<int, std::allocator<int>>::_Vector_impl_data" }
%"struct.std::_Vector_base<int, std::allocator<int>>::_Vector_impl_data" = type { ptr, ptr, ptr }
%"class.std::vector.3" = type { %"struct.std::_Vector_base.4" }
%"struct.std::_Vector_base.4" = type { %"struct.std::_Vector_base<Yosys::hashlib::dict<Yosys::RTLIL::SigBit, int>::entry_t, std::allocator<Yosys::hashlib::dict<Yosys::RTLIL::SigBit, int>::entry_t>>::_Vector_impl" }
%"struct.std::_Vector_base<Yosys::hashlib::dict<Yosys::RTLIL::SigBit, int>::entry_t, std::allocator<Yosys::hashlib::dict<Yosys::RTLIL::SigBit, int>::entry_t>>::_Vector_impl" = type { %"struct.std::_Vector_base<Yosys::hashlib::dict<Yosys::RTLIL::SigBit, int>::entry_t, std::allocator<Yosys::hashlib::dict<Yosys::RTLIL::SigBit, int>::entry_t>>::_Vector_impl_data" }
%"struct.std::_Vector_base<Yosys::hashlib::dict<Yosys::RTLIL::SigBit, int>::entry_t, std::allocator<Yosys::hashlib::dict<Yosys::RTLIL::SigBit, int>::entry_t>>::_Vector_impl_data" = type { ptr, ptr, ptr }
%"struct.Yosys::hashlib::hash_ops" = type { i8 }
%"struct.Yosys::SigMap" = type { %"class.Yosys::hashlib::mfp" }
%"class.Yosys::hashlib::mfp" = type { %"class.Yosys::hashlib::idict", %"class.std::vector" }
%"class.Yosys::hashlib::idict" = type { %"class.Yosys::hashlib::pool" }
%"class.Yosys::hashlib::pool" = type <{ %"class.std::vector", %"class.std::vector.8", %"struct.Yosys::hashlib::hash_ops", [7 x i8] }>
%"class.std::vector.8" = type { %"struct.std::_Vector_base.9" }
%"struct.std::_Vector_base.9" = type { %"struct.std::_Vector_base<Yosys::hashlib::pool<Yosys::RTLIL::SigBit>::entry_t, std::allocator<Yosys::hashlib::pool<Yosys::RTLIL::SigBit>::entry_t>>::_Vector_impl" }
%"struct.std::_Vector_base<Yosys::hashlib::pool<Yosys::RTLIL::SigBit>::entry_t, std::allocator<Yosys::hashlib::pool<Yosys::RTLIL::SigBit>::entry_t>>::_Vector_impl" = type { %"struct.std::_Vector_base<Yosys::hashlib::pool<Yosys::RTLIL::SigBit>::entry_t, std::allocator<Yosys::hashlib::pool<Yosys::RTLIL::SigBit>::entry_t>>::_Vector_impl_data" }
%"struct.std::_Vector_base<Yosys::hashlib::pool<Yosys::RTLIL::SigBit>::entry_t, std::allocator<Yosys::hashlib::pool<Yosys::RTLIL::SigBit>::entry_t>>::_Vector_impl_data" = type { ptr, ptr, ptr }
%"struct.Yosys::FfInitVals" = type { ptr, %"class.Yosys::hashlib::dict.13" }
%"class.Yosys::hashlib::dict.13" = type <{ %"class.std::vector", %"class.std::vector.14", %"struct.Yosys::hashlib::hash_ops", [7 x i8] }>
%"class.std::vector.14" = type { %"struct.std::_Vector_base.15" }
%"struct.std::_Vector_base.15" = type { %"struct.std::_Vector_base<Yosys::hashlib::dict<Yosys::RTLIL::SigBit, std::pair<Yosys::RTLIL::State, Yosys::RTLIL::SigBit>>::entry_t, std::allocator<Yosys::hashlib::dict<Yosys::RTLIL::SigBit, std::pair<Yosys::RTLIL::State, Yosys::RTLIL::SigBit>>::entry_t>>::_Vector_impl" }
%"struct.std::_Vector_base<Yosys::hashlib::dict<Yosys::RTLIL::SigBit, std::pair<Yosys::RTLIL::State, Yosys::RTLIL::SigBit>>::entry_t, std::allocator<Yosys::hashlib::dict<Yosys::RTLIL::SigBit, std::pair<Yosys::RTLIL::State, Yosys::RTLIL::SigBit>>::entry_t>>::_Vector_impl" = type { %"struct.std::_Vector_base<Yosys::hashlib::dict<Yosys::RTLIL::SigBit, std::pair<Yosys::RTLIL::State, Yosys::RTLIL::SigBit>>::entry_t, std::allocator<Yosys::hashlib::dict<Yosys::RTLIL::SigBit, std::pair<Yosys::RTLIL::State, Yosys::RTLIL::SigBit>>::entry_t>>::_Vector_impl_data" }
%"struct.std::_Vector_base<Yosys::hashlib::dict<Yosys::RTLIL::SigBit, std::pair<Yosys::RTLIL::State, Yosys::RTLIL::SigBit>>::entry_t, std::allocator<Yosys::hashlib::dict<Yosys::RTLIL::SigBit, std::pair<Yosys::RTLIL::State, Yosys::RTLIL::SigBit>>::entry_t>>::_Vector_impl_data" = type { ptr, ptr, ptr }
%"struct.Yosys::RTLIL::IdString" = type { i32 }
%"struct.Yosys::FfData" = type { ptr, ptr, ptr, %"struct.Yosys::RTLIL::IdString", %"struct.Yosys::RTLIL::SigSpec", %"struct.Yosys::RTLIL::SigSpec", %"struct.Yosys::RTLIL::SigSpec", %"struct.Yosys::RTLIL::SigSpec", %"struct.Yosys::RTLIL::SigSpec", %"struct.Yosys::RTLIL::SigSpec", %"struct.Yosys::RTLIL::SigSpec", %"struct.Yosys::RTLIL::SigSpec", %"struct.Yosys::RTLIL::SigSpec", %"struct.Yosys::RTLIL::SigSpec", i8, i8, i8, i8, i8, i8, i8, i8, i8, i8, i8, i8, i8, i8, i8, i8, i8, %"struct.Yosys::RTLIL::Const", %"struct.Yosys::RTLIL::Const", %"struct.Yosys::RTLIL::Const", i32, [4 x i8], %"class.Yosys::hashlib::dict.25" }
%"struct.Yosys::RTLIL::SigSpec" = type { i32, i64, %"class.std::vector.92", %"class.std::vector.97" }
%"class.std::vector.92" = type { %"struct.std::_Vector_base.93" }
%"struct.std::_Vector_base.93" = type { %"struct.std::_Vector_base<Yosys::RTLIL::SigChunk, std::allocator<Yosys::RTLIL::SigChunk>>::_Vector_impl" }
%"struct.std::_Vector_base<Yosys::RTLIL::SigChunk, std::allocator<Yosys::RTLIL::SigChunk>>::_Vector_impl" = type { %"struct.std::_Vector_base<Yosys::RTLIL::SigChunk, std::allocator<Yosys::RTLIL::SigChunk>>::_Vector_impl_data" }
%"struct.std::_Vector_base<Yosys::RTLIL::SigChunk, std::allocator<Yosys::RTLIL::SigChunk>>::_Vector_impl_data" = type { ptr, ptr, ptr }
%"class.std::vector.97" = type { %"struct.std::_Vector_base.98" }
%"struct.std::_Vector_base.98" = type { %"struct.std::_Vector_base<Yosys::RTLIL::SigBit, std::allocator<Yosys::RTLIL::SigBit>>::_Vector_impl" }
%"struct.std::_Vector_base<Yosys::RTLIL::SigBit, std::allocator<Yosys::RTLIL::SigBit>>::_Vector_impl" = type { %"struct.std::_Vector_base<Yosys::RTLIL::SigBit, std::allocator<Yosys::RTLIL::SigBit>>::_Vector_impl_data" }
%"struct.std::_Vector_base<Yosys::RTLIL::SigBit, std::allocator<Yosys::RTLIL::SigBit>>::_Vector_impl_data" = type { ptr, ptr, ptr }
%"struct.Yosys::RTLIL::Const" = type { i32, %"class.std::vector.158" }
%"class.std::vector.158" = type { %"struct.std::_Vector_base.159" }
%"struct.std::_Vector_base.159" = type { %"struct.std::_Vector_base<Yosys::RTLIL::State, std::allocator<Yosys::RTLIL::State>>::_Vector_impl" }
%"struct.std::_Vector_base<Yosys::RTLIL::State, std::allocator<Yosys::RTLIL::State>>::_Vector_impl" = type { %"struct.std::_Vector_base<Yosys::RTLIL::State, std::allocator<Yosys::RTLIL::State>>::_Vector_impl_data" }
%"struct.std::_Vector_base<Yosys::RTLIL::State, std::allocator<Yosys::RTLIL::State>>::_Vector_impl_data" = type { ptr, ptr, ptr }
%"class.Yosys::hashlib::dict.25" = type <{ %"class.std::vector", %"class.std::vector.26", %"struct.Yosys::hashlib::hash_ops.31", [7 x i8] }>
%"class.std::vector.26" = type { %"struct.std::_Vector_base.27" }
%"struct.std::_Vector_base.27" = type { %"struct.std::_Vector_base<Yosys::hashlib::dict<Yosys::RTLIL::IdString, Yosys::RTLIL::Const>::entry_t, std::allocator<Yosys::hashlib::dict<Yosys::RTLIL::IdString, Yosys::RTLIL::Const>::entry_t>>::_Vector_impl" }
%"struct.std::_Vector_base<Yosys::hashlib::dict<Yosys::RTLIL::IdString, Yosys::RTLIL::Const>::entry_t, std::allocator<Yosys::hashlib::dict<Yosys::RTLIL::IdString, Yosys::RTLIL::Const>::entry_t>>::_Vector_impl" = type { %"struct.std::_Vector_base<Yosys::hashlib::dict<Yosys::RTLIL::IdString, Yosys::RTLIL::Const>::entry_t, std::allocator<Yosys::hashlib::dict<Yosys::RTLIL::IdString, Yosys::RTLIL::Const>::entry_t>>::_Vector_impl_data" }
%"struct.std::_Vector_base<Yosys::hashlib::dict<Yosys::RTLIL::IdString, Yosys::RTLIL::Const>::entry_t, std::allocator<Yosys::hashlib::dict<Yosys::RTLIL::IdString, Yosys::RTLIL::Const>::entry_t>>::_Vector_impl_data" = type { ptr, ptr, ptr }
%"struct.Yosys::hashlib::hash_ops.31" = type { i8 }

; Function Attrs: mustprogress uwtable
define internal void @_ZN12_GLOBAL__N_115DffLegalizePass13legalize_sdffERN5Yosys6FfDataE(ptr noundef nonnull align 8 dereferenceable(2536) %0, ptr noundef nonnull align 8 dereferenceable(856) %1) #4 align 2 {
  %3 = alloca ptr, align 8
  %4 = alloca ptr, align 8
  %5 = alloca i32, align 4
  store ptr %0, ptr %3, align 8
  store ptr %1, ptr %4, align 8
  %6 = load ptr, ptr %3, align 8
  %7 = load ptr, ptr %4, align 8
  %8 = getelementptr inbounds %"struct.(anonymous namespace)::DffLegalizePass", ptr %6, i32 0, i32 10
  %9 = load i32, ptr %8, align 4
  %10 = call noundef zeroext i1 @_ZN12_GLOBAL__N_115DffLegalizePass8try_flipERN5Yosys6FfDataEi(ptr noundef nonnull align 8 dereferenceable(2536) %6, ptr noundef nonnull align 8 dereferenceable(856) %7, i32 noundef %9)
  br i1 %10, label %14, label %11

11:                                               ; preds = %2
  %12 = load ptr, ptr %4, align 8
  call void @_ZN5Yosys6FfData10unmap_srstEv(ptr noundef nonnull align 8 dereferenceable(856) %12)
  %13 = load ptr, ptr %4, align 8
  call void @_ZN12_GLOBAL__N_115DffLegalizePass12legalize_dffERN5Yosys6FfDataE(ptr noundef nonnull align 8 dereferenceable(2536) %6, ptr noundef nonnull align 8 dereferenceable(856) %13)
  br label %91

14:                                               ; preds = %2
  %15 = load ptr, ptr %4, align 8
  %16 = call noundef i32 @_ZN12_GLOBAL__N_115DffLegalizePass12get_initmaskERN5Yosys6FfDataE(ptr noundef nonnull align 8 dereferenceable(2536) %6, ptr noundef nonnull align 8 dereferenceable(856) %15)
  store i32 %16, ptr %5, align 4
  %17 = load ptr, ptr %4, align 8
  %18 = getelementptr inbounds %"struct.Yosys::FfData", ptr %17, i32 0, i32 16
  %19 = load i8, ptr %18, align 2
  %20 = trunc i8 %19 to i1
  br i1 %20, label %55, label %21

21:                                               ; preds = %14
  %22 = getelementptr inbounds %"struct.(anonymous namespace)::DffLegalizePass", ptr %6, i32 0, i32 2
  %23 = getelementptr inbounds [16 x i32], ptr %22, i64 0, i64 8
  %24 = load i32, ptr %23, align 8
  %25 = load i32, ptr %5, align 4
  %26 = and i32 %24, %25
  %27 = icmp ne i32 %26, 0
  br i1 %27, label %28, label %29

28:                                               ; preds = %21
  br label %54

29:                                               ; preds = %21
  %30 = getelementptr inbounds %"struct.(anonymous namespace)::DffLegalizePass", ptr %6, i32 0, i32 2
  %31 = getelementptr inbounds [16 x i32], ptr %30, i64 0, i64 9
  %32 = load i32, ptr %31, align 4
  %33 = load i32, ptr %5, align 4
  %34 = and i32 %32, %33
  %35 = icmp ne i32 %34, 0
  br i1 %35, label %36, label %38

36:                                               ; preds = %29
  %37 = load ptr, ptr %4, align 8
  call void @_ZN5Yosys6FfData12add_dummy_ceEv(ptr noundef nonnull align 8 dereferenceable(856) %37)
  br label %53

38:                                               ; preds = %29
  %39 = getelementptr inbounds %"struct.(anonymous namespace)::DffLegalizePass", ptr %6, i32 0, i32 2
  %40 = getelementptr inbounds [16 x i32], ptr %39, i64 0, i64 10
  %41 = load i32, ptr %40, align 8
  %42 = load i32, ptr %5, align 4
  %43 = and i32 %41, %42
  %44 = icmp ne i32 %43, 0
  br i1 %44, label %45, label %49

45:                                               ; preds = %38
  %46 = load ptr, ptr %4, align 8
  call void @_ZN5Yosys6FfData12add_dummy_ceEv(ptr noundef nonnull align 8 dereferenceable(856) %46)
  %47 = load ptr, ptr %4, align 8
  %48 = getelementptr inbounds %"struct.Yosys::FfData", ptr %47, i32 0, i32 21
  store i8 1, ptr %48, align 1
  br label %52

49:                                               ; preds = %38
  br label %50

50:                                               ; preds = %49
  br label %51

51:                                               ; preds = %50
  br label %52

52:                                               ; preds = %51, %45
  br label %53

53:                                               ; preds = %52, %36
  br label %54

54:                                               ; preds = %53, %28
  br label %89

55:                                               ; preds = %14
  br label %56

56:                                               ; preds = %55
  br label %57

57:                                               ; preds = %56
  %58 = getelementptr inbounds %"struct.(anonymous namespace)::DffLegalizePass", ptr %6, i32 0, i32 2
  %59 = getelementptr inbounds [16 x i32], ptr %58, i64 0, i64 9
  %60 = load i32, ptr %59, align 4
  %61 = load i32, ptr %5, align 4
  %62 = and i32 %60, %61
  %63 = icmp ne i32 %62, 0
  br i1 %63, label %64, label %65

64:                                               ; preds = %57
  br label %88

65:                                               ; preds = %57
  %66 = getelementptr inbounds %"struct.(anonymous namespace)::DffLegalizePass", ptr %6, i32 0, i32 2
  %67 = getelementptr inbounds [16 x i32], ptr %66, i64 0, i64 10
  %68 = load i32, ptr %67, align 8
  %69 = load i32, ptr %5, align 4
  %70 = and i32 %68, %69
  %71 = icmp ne i32 %70, 0
  br i1 %71, label %72, label %74

72:                                               ; preds = %65
  %73 = load ptr, ptr %4, align 8
  call void @_ZN5Yosys6FfData20convert_ce_over_srstEb(ptr noundef nonnull align 8 dereferenceable(856) %73, i1 noundef zeroext true)
  br label %87

74:                                               ; preds = %65
  %75 = getelementptr inbounds %"struct.(anonymous namespace)::DffLegalizePass", ptr %6, i32 0, i32 2
  %76 = getelementptr inbounds [16 x i32], ptr %75, i64 0, i64 8
  %77 = load i32, ptr %76, align 8
  %78 = load i32, ptr %5, align 4
  %79 = and i32 %77, %78
  %80 = icmp ne i32 %79, 0
  br i1 %80, label %81, label %83

81:                                               ; preds = %74
  %82 = load ptr, ptr %4, align 8
  call void @_ZN5Yosys6FfData8unmap_ceEv(ptr noundef nonnull align 8 dereferenceable(856) %82)
  br label %86

83:                                               ; preds = %74
  br label %84

84:                                               ; preds = %83
  br label %85

85:                                               ; preds = %84
  br label %86

86:                                               ; preds = %85, %81
  br label %87

87:                                               ; preds = %86, %72
  br label %88

88:                                               ; preds = %87, %64
  br label %89

89:                                               ; preds = %88, %54
  %90 = load ptr, ptr %4, align 8
  call void @_ZN12_GLOBAL__N_115DffLegalizePass15legalize_finishERN5Yosys6FfDataE(ptr noundef nonnull align 8 dereferenceable(2536) %6, ptr noundef nonnull align 8 dereferenceable(856) %90)
  br label %91

91:                                               ; preds = %89, %11
  ret void
}