; Function Attrs: mustprogress uwtable
define internal fastcc void @_ZN12_GLOBAL__N_115DffLegalizePass13legalize_sdffERN5Yosys6FfDataE(ptr nocapture noundef nonnull readonly align 8 dereferenceable(2536) %0, ptr noundef nonnull align 8 dereferenceable(856) %1) unnamed_addr #4 align 2 {
  %3 = getelementptr inbounds i8, ptr %0, i64 2244
  %4 = load i32, ptr %3, align 4
  %5 = tail call fastcc noundef zeroext i1 @_ZN12_GLOBAL__N_115DffLegalizePass8try_flipERN5Yosys6FfDataEi(ptr noundef nonnull align 8 dereferenceable(856) %1, i32 noundef %4)
  br i1 %5, label %7, label %6

6:                                                ; preds = %2
  tail call void @_ZN5Yosys6FfData10unmap_srstEv(ptr noundef nonnull align 8 dereferenceable(856) %1)
  tail call fastcc void @_ZN12_GLOBAL__N_115DffLegalizePass12legalize_dffERN5Yosys6FfDataE(ptr noundef nonnull align 8 dereferenceable(2536) %0, ptr noundef nonnull align 8 dereferenceable(856) %1)
  br label %42

7:                                                ; preds = %2
  %8 = tail call fastcc noundef i32 @_ZN12_GLOBAL__N_115DffLegalizePass12get_initmaskERN5Yosys6FfDataE(ptr noundef nonnull align 8 dereferenceable(856) %1)
  %9 = getelementptr inbounds i8, ptr %1, i64 674
  %10 = load i8, ptr %9, align 2
  %11 = and i8 %10, 1
  %.not = icmp eq i8 %11, 0
  br i1 %.not, label %12, label %27

12:                                               ; preds = %7
  %13 = getelementptr inbounds i8, ptr %0, i64 2184
  %14 = load i32, ptr %13, align 8
  %15 = and i32 %14, %8
  %.not17 = icmp eq i32 %15, 0
  br i1 %.not17, label %16, label %41

16:                                               ; preds = %12
  %17 = getelementptr inbounds i8, ptr %0, i64 2188
  %18 = load i32, ptr %17, align 4
  %19 = and i32 %18, %8
  %.not18 = icmp eq i32 %19, 0
  br i1 %.not18, label %21, label %20

20:                                               ; preds = %16
  tail call void @_ZN5Yosys6FfData12add_dummy_ceEv(ptr noundef nonnull align 8 dereferenceable(856) %1)
  br label %41

21:                                               ; preds = %16
  %22 = getelementptr inbounds i8, ptr %0, i64 2192
  %23 = load i32, ptr %22, align 8
  %24 = and i32 %23, %8
  %.not19 = icmp eq i32 %24, 0
  br i1 %.not19, label %41, label %25

25:                                               ; preds = %21
  tail call void @_ZN5Yosys6FfData12add_dummy_ceEv(ptr noundef nonnull align 8 dereferenceable(856) %1)
  %26 = getelementptr inbounds i8, ptr %1, i64 679
  store i8 1, ptr %26, align 1
  br label %41

27:                                               ; preds = %7
  %28 = getelementptr inbounds i8, ptr %0, i64 2188
  %29 = load i32, ptr %28, align 4
  %30 = and i32 %29, %8
  %.not20 = icmp eq i32 %30, 0
  br i1 %.not20, label %31, label %41

31:                                               ; preds = %27
  %32 = getelementptr inbounds i8, ptr %0, i64 2192
  %33 = load i32, ptr %32, align 8
  %34 = and i32 %33, %8
  %.not21 = icmp eq i32 %34, 0
  br i1 %.not21, label %36, label %35

35:                                               ; preds = %31
  tail call void @_ZN5Yosys6FfData20convert_ce_over_srstEb(ptr noundef nonnull align 8 dereferenceable(856) %1, i1 noundef zeroext true)
  br label %41

36:                                               ; preds = %31
  %37 = getelementptr inbounds i8, ptr %0, i64 2184
  %38 = load i32, ptr %37, align 8
  %39 = and i32 %38, %8
  %.not22 = icmp eq i32 %39, 0
  br i1 %.not22, label %41, label %40

40:                                               ; preds = %36
  tail call void @_ZN5Yosys6FfData8unmap_ceEv(ptr noundef nonnull align 8 dereferenceable(856) %1)
  br label %41

41:                                               ; preds = %27, %40, %36, %35, %12, %25, %21, %20
  tail call fastcc void @_ZN12_GLOBAL__N_115DffLegalizePass15legalize_finishERN5Yosys6FfDataE(ptr noundef nonnull align 8 dereferenceable(2536) %0, ptr noundef nonnull align 8 dereferenceable(856) %1)
  br label %42

42:                                               ; preds = %41, %6
  ret void
}